target datalayout = "e-m:e-p270:32:32-p271:32:32-p272:64:64-i64:64-i128:128-f80:128-n8:16:32:64-S128"
target triple = "x86_64-pc-linux-gnu"

%struct.JSValue = type { %union.JSValueUnion, i64 }
%union.JSValueUnion = type { double }
%struct.JSRefCountHeader = type { i32 }

@.str.1 = private unnamed_addr constant [8 x i8] c"file://\00", align 1
@.str.2 = private unnamed_addr constant [17 x i8] c"realpath failure\00", align 1
@.str.3 = private unnamed_addr constant [4 x i8] c"url\00", align 1
@.str.4 = private unnamed_addr constant [5 x i8] c"main\00", align 1

; Function Attrs: nounwind uwtable
define internal void @JS_FreeValue(ptr noundef %0, i64 %1, i64 %2) #0 {
  %4 = alloca %struct.JSValue, align 8
  %5 = alloca ptr, align 8
  %6 = alloca ptr, align 8
  %7 = getelementptr inbounds { i64, i64 }, ptr %4, i32 0, i32 0
  store i64 %1, ptr %7, align 8
  %8 = getelementptr inbounds { i64, i64 }, ptr %4, i32 0, i32 1
  store i64 %2, ptr %8, align 8
  store ptr %0, ptr %5, align 8
  %9 = getelementptr inbounds %struct.JSValue, ptr %4, i32 0, i32 1
  %10 = load i64, ptr %9, align 8
  %11 = trunc i64 %10 to i32
  %12 = icmp uge i32 %11, -11
  br i1 %12, label %13, label %28

13:                                               ; preds = %3
  %14 = getelementptr inbounds %struct.JSValue, ptr %4, i32 0, i32 0
  %15 = load ptr, ptr %14, align 8
  store ptr %15, ptr %6, align 8
  %16 = load ptr, ptr %6, align 8
  %17 = getelementptr inbounds %struct.JSRefCountHeader, ptr %16, i32 0, i32 0
  %18 = load i32, ptr %17, align 4
  %19 = add i32 %18, -1
  store i32 %19, ptr %17, align 4
  %20 = icmp sle i32 %19, 0
  br i1 %20, label %21, label %27

21:                                               ; preds = %13
  %22 = load ptr, ptr %5, align 8
  %23 = getelementptr inbounds { i64, i64 }, ptr %4, i32 0, i32 0
  %24 = load i64, ptr %23, align 8
  %25 = getelementptr inbounds { i64, i64 }, ptr %4, i32 0, i32 1
  %26 = load i64, ptr %25, align 8
  call void @__JS_FreeValue(ptr noundef %22, i64 %24, i64 %26)
  br label %27

27:                                               ; preds = %21, %13
  br label %28

28:                                               ; preds = %27, %3
  ret void
}

; Function Attrs: nounwind uwtable
define internal i32 @JS_IsException(i64 %0, i64 %1) #0 {
  %3 = alloca %struct.JSValue, align 8
  %4 = getelementptr inbounds { i64, i64 }, ptr %3, i32 0, i32 0
  store i64 %0, ptr %4, align 8
  %5 = getelementptr inbounds { i64, i64 }, ptr %3, i32 0, i32 1
  store i64 %1, ptr %5, align 8
  %6 = getelementptr inbounds %struct.JSValue, ptr %3, i32 0, i32 1
  %7 = load i64, ptr %6, align 8
  %8 = trunc i64 %7 to i32
  %9 = icmp eq i32 %8, 6
  %10 = xor i1 %9, true
  %11 = xor i1 %10, true
  %12 = zext i1 %11 to i32
  %13 = sext i32 %12 to i64
  %14 = trunc i64 %13 to i32
  ret i32 %14
}

; Function Attrs: nounwind uwtable
define dso_local i32 @js_module_set_import_meta(ptr noundef %0, i64 %1, i64 %2, i32 noundef %3, i32 noundef %4) #0 {
  %6 = alloca %struct.JSValue, align 8
  %7 = alloca ptr, align 8
  %8 = alloca i32, align 4
  %9 = alloca i32, align 4
  %10 = alloca %struct.JSValue, align 8
  %11 = alloca ptr, align 8
  %12 = alloca i32, align 4
  %13 = alloca i32, align 4
  %14 = alloca ptr, align 8
  %15 = alloca [4112 x i8], align 16
  %16 = alloca %struct.JSValue, align 8
  %17 = alloca i32, align 4
  %18 = alloca ptr, align 8
  %19 = alloca ptr, align 8
  %20 = alloca %struct.JSValue, align 8
  %21 = alloca %struct.JSValue, align 8
  %22 = alloca %struct.JSValue, align 8
  %23 = alloca %struct.JSValue, align 8
  %24 = getelementptr inbounds { i64, i64 }, ptr %10, i32 0, i32 0
  store i64 %1, ptr %24, align 8
  %25 = getelementptr inbounds { i64, i64 }, ptr %10, i32 0, i32 1
  store i64 %2, ptr %25, align 8
  store ptr %0, ptr %11, align 8
  store i32 %3, ptr %12, align 4
  store i32 %4, ptr %13, align 4
  %26 = getelementptr inbounds %struct.JSValue, ptr %10, i32 0, i32 0
  %27 = load ptr, ptr %26, align 8
  store ptr %27, ptr %14, align 8
  %28 = load ptr, ptr %11, align 8
  %29 = load ptr, ptr %14, align 8
  %30 = call i32 @JS_GetModuleName(ptr noundef %28, ptr noundef %29)
  store i32 %30, ptr %17, align 4
  %31 = load ptr, ptr %11, align 8
  %32 = load i32, ptr %17, align 4
  %33 = call ptr @JS_AtomToCString(ptr noundef %31, i32 noundef %32)
  store ptr %33, ptr %18, align 8
  %34 = load ptr, ptr %11, align 8
  %35 = load i32, ptr %17, align 4
  call void @JS_FreeAtom(ptr noundef %34, i32 noundef %35)
  %36 = load ptr, ptr %18, align 8
  %37 = icmp ne ptr %36, null
  br i1 %37, label %39, label %38

38:                                               ; preds = %5
  store i32 -1, ptr %9, align 4
  br label %136

39:                                               ; preds = %5
  %40 = load ptr, ptr %18, align 8
  %41 = call ptr @strchr(ptr noundef %40, i32 noundef 58) #13
  %42 = icmp ne ptr %41, null
  br i1 %42, label %72, label %43

43:                                               ; preds = %39
  %44 = getelementptr inbounds [4112 x i8], ptr %15, i64 0, i64 0
  %45 = call ptr @strcpy(ptr noundef %44, ptr noundef @.str.1) #12
  %46 = load i32, ptr %12, align 4
  %47 = icmp ne i32 %46, 0
  br i1 %47, label %48, label %67

48:                                               ; preds = %43
  %49 = load ptr, ptr %18, align 8
  %50 = getelementptr inbounds [4112 x i8], ptr %15, i64 0, i64 0
  %51 = getelementptr inbounds [4112 x i8], ptr %15, i64 0, i64 0
  %52 = call i64 @strlen(ptr noundef %51) #13
  %53 = getelementptr i8, ptr %50, i64 %52
  %54 = call ptr @realpath(ptr noundef %49, ptr noundef %53) #12
  store ptr %54, ptr %19, align 8
  %55 = load ptr, ptr %19, align 8
  %56 = icmp ne ptr %55, null
  br i1 %56, label %66, label %57

57:                                               ; preds = %48
  %58 = load ptr, ptr %11, align 8
  %59 = call { i64, i64 } (ptr, ptr, ...) @JS_ThrowTypeError(ptr noundef %58, ptr noundef @.str.2)
  %60 = getelementptr inbounds { i64, i64 }, ptr %20, i32 0, i32 0
  %61 = extractvalue { i64, i64 } %59, 0
  store i64 %61, ptr %60, align 8
  %62 = getelementptr inbounds { i64, i64 }, ptr %20, i32 0, i32 1
  %63 = extractvalue { i64, i64 } %59, 1
  store i64 %63, ptr %62, align 8
  %64 = load ptr, ptr %11, align 8
  %65 = load ptr, ptr %18, align 8
  call void @JS_FreeCString(ptr noundef %64, ptr noundef %65)
  store i32 -1, ptr %9, align 4
  br label %136

66:                                               ; preds = %48
  br label %71

67:                                               ; preds = %43
  %68 = getelementptr inbounds [4112 x i8], ptr %15, i64 0, i64 0
  %69 = load ptr, ptr %18, align 8
  %70 = call ptr @pstrcat(ptr noundef %68, i32 noundef 4112, ptr noundef %69)
  br label %71

71:                                               ; preds = %67, %66
  br label %75

72:                                               ; preds = %39
  %73 = getelementptr inbounds [4112 x i8], ptr %15, i64 0, i64 0
  %74 = load ptr, ptr %18, align 8
  call void @pstrcpy(ptr noundef %73, i32 noundef 4112, ptr noundef %74)
  br label %75

75:                                               ; preds = %72, %71
  %76 = load ptr, ptr %11, align 8
  %77 = load ptr, ptr %18, align 8
  call void @JS_FreeCString(ptr noundef %76, ptr noundef %77)
  %78 = load ptr, ptr %11, align 8
  %79 = load ptr, ptr %14, align 8
  %80 = call { i64, i64 } @JS_GetImportMeta(ptr noundef %78, ptr noundef %79)
  %81 = getelementptr inbounds { i64, i64 }, ptr %21, i32 0, i32 0
  %82 = extractvalue { i64, i64 } %80, 0
  store i64 %82, ptr %81, align 8
  %83 = getelementptr inbounds { i64, i64 }, ptr %21, i32 0, i32 1
  %84 = extractvalue { i64, i64 } %80, 1
  store i64 %84, ptr %83, align 8
  call void @llvm.memcpy.p0.p0.i64(ptr align 8 %16, ptr align 8 %21, i64 16, i1 false)
  %85 = getelementptr inbounds { i64, i64 }, ptr %16, i32 0, i32 0
  %86 = load i64, ptr %85, align 8
  %87 = getelementptr inbounds { i64, i64 }, ptr %16, i32 0, i32 1
  %88 = load i64, ptr %87, align 8
  %89 = call i32 @JS_IsException(i64 %86, i64 %88)
  %90 = icmp ne i32 %89, 0
  br i1 %90, label %91, label %92

91:                                               ; preds = %75
  store i32 -1, ptr %9, align 4
  br label %136

92:                                               ; preds = %75
  %93 = load ptr, ptr %11, align 8
  %94 = load ptr, ptr %11, align 8
  %95 = getelementptr inbounds [4112 x i8], ptr %15, i64 0, i64 0
  %96 = call { i64, i64 } @JS_NewString(ptr noundef %94, ptr noundef %95)
  %97 = getelementptr inbounds { i64, i64 }, ptr %22, i32 0, i32 0
  %98 = extractvalue { i64, i64 } %96, 0
  store i64 %98, ptr %97, align 8
  %99 = getelementptr inbounds { i64, i64 }, ptr %22, i32 0, i32 1
  %100 = extractvalue { i64, i64 } %96, 1
  store i64 %100, ptr %99, align 8
  %101 = getelementptr inbounds { i64, i64 }, ptr %16, i32 0, i32 0
  %102 = load i64, ptr %101, align 8
  %103 = getelementptr inbounds { i64, i64 }, ptr %16, i32 0, i32 1
  %104 = load i64, ptr %103, align 8
  %105 = getelementptr inbounds { i64, i64 }, ptr %22, i32 0, i32 0
  %106 = load i64, ptr %105, align 8
  %107 = getelementptr inbounds { i64, i64 }, ptr %22, i32 0, i32 1
  %108 = load i64, ptr %107, align 8
  %109 = call i32 @JS_DefinePropertyValueStr(ptr noundef %93, i64 %102, i64 %104, ptr noundef @.str.3, i64 %106, i64 %108, i32 noundef 7)
  %110 = load ptr, ptr %11, align 8
  %111 = load ptr, ptr %11, align 8
  %112 = load i32, ptr %13, align 4
  store ptr %111, ptr %7, align 8
  store i32 %112, ptr %8, align 4
  %113 = load i32, ptr %8, align 4
  %114 = icmp ne i32 %113, 0
  %115 = zext i1 %114 to i32
  store i32 %115, ptr %6, align 8
  %116 = getelementptr inbounds %struct.JSValue, ptr %6, i32 0, i32 1
  store i64 1, ptr %116, align 8
  %117 = load { i64, i64 }, ptr %6, align 8
  %118 = getelementptr inbounds { i64, i64 }, ptr %23, i32 0, i32 0
  %119 = extractvalue { i64, i64 } %117, 0
  store i64 %119, ptr %118, align 8
  %120 = getelementptr inbounds { i64, i64 }, ptr %23, i32 0, i32 1
  %121 = extractvalue { i64, i64 } %117, 1
  store i64 %121, ptr %120, align 8
  %122 = getelementptr inbounds { i64, i64 }, ptr %16, i32 0, i32 0
  %123 = load i64, ptr %122, align 8
  %124 = getelementptr inbounds { i64, i64 }, ptr %16, i32 0, i32 1
  %125 = load i64, ptr %124, align 8
  %126 = getelementptr inbounds { i64, i64 }, ptr %23, i32 0, i32 0
  %127 = load i64, ptr %126, align 8
  %128 = getelementptr inbounds { i64, i64 }, ptr %23, i32 0, i32 1
  %129 = load i64, ptr %128, align 8
  %130 = call i32 @JS_DefinePropertyValueStr(ptr noundef %110, i64 %123, i64 %125, ptr noundef @.str.4, i64 %127, i64 %129, i32 noundef 7)
  %131 = load ptr, ptr %11, align 8
  %132 = getelementptr inbounds { i64, i64 }, ptr %16, i32 0, i32 0
  %133 = load i64, ptr %132, align 8
  %134 = getelementptr inbounds { i64, i64 }, ptr %16, i32 0, i32 1
  %135 = load i64, ptr %134, align 8
  call void @JS_FreeValue(ptr noundef %131, i64 %133, i64 %135)
  store i32 0, ptr %9, align 4
  br label %136

136:                                              ; preds = %92, %91, %57, %38
  %137 = load i32, ptr %9, align 4
  ret i32 %137
}