; Function Attrs: nounwind uwtable
define dso_local noundef i32 @js_module_set_import_meta(ptr noundef %0, i64 %1, i64 %2, i32 noundef %3, i32 noundef %4) local_unnamed_addr #0 {
  %6 = alloca [4112 x i8], align 16
  %.sroa.037.0..sroa.037.0..cast = inttoptr i64 %1 to ptr
  %7 = tail call i32 @JS_GetModuleName(ptr noundef %0, ptr noundef %.sroa.037.0..sroa.037.0..cast) #29
  %8 = tail call ptr @JS_AtomToCString(ptr noundef %0, i32 noundef %7) #29
  tail call void @JS_FreeAtom(ptr noundef %0, i32 noundef %7) #29
  %.not = icmp eq ptr %8, null
  br i1 %.not, label %JS_FreeValue.exit, label %9

9:                                                ; preds = %5
  %10 = tail call ptr @strchr(ptr noundef nonnull dereferenceable(1) %8, i32 noundef 58) #31
  %.not44 = icmp eq ptr %10, null
  br i1 %.not44, label %11, label %20

11:                                               ; preds = %9
  store i64 13281251761613158, ptr %6, align 16
  %.not45 = icmp eq i32 %3, 0
  br i1 %.not45, label %18, label %12

12:                                               ; preds = %11
  %13 = call i64 @strlen(ptr noundef nonnull dereferenceable(1) %6) #31
  %14 = getelementptr i8, ptr %6, i64 %13
  %15 = call ptr @realpath(ptr noundef nonnull %8, ptr noundef %14) #29
  %.not46 = icmp eq ptr %15, null
  br i1 %.not46, label %16, label %21

16:                                               ; preds = %12
  %17 = call { i64, i64 } (ptr, ptr, ...) @JS_ThrowTypeError(ptr noundef %0, ptr noundef nonnull @.str.2) #29
  call void @JS_FreeCString(ptr noundef %0, ptr noundef nonnull %8) #29
  br label %JS_FreeValue.exit

18:                                               ; preds = %11
  %19 = call ptr @pstrcat(ptr noundef nonnull %6, i32 noundef 4112, ptr noundef nonnull %8) #29
  br label %21

20:                                               ; preds = %9
  call void @pstrcpy(ptr noundef nonnull %6, i32 noundef 4112, ptr noundef nonnull %8) #29
  br label %21

21:                                               ; preds = %18, %12, %20
  call void @JS_FreeCString(ptr noundef %0, ptr noundef nonnull %8) #29
  %22 = call { i64, i64 } @JS_GetImportMeta(ptr noundef %0, ptr noundef %.sroa.037.0..sroa.037.0..cast) #29
  %23 = extractvalue { i64, i64 } %22, 0
  %24 = extractvalue { i64, i64 } %22, 1
  %25 = and i64 %24, 4294967295
  %.not48 = icmp eq i64 %25, 6
  br i1 %.not48, label %JS_FreeValue.exit, label %26

26:                                               ; preds = %21
  %27 = call { i64, i64 } @JS_NewString(ptr noundef %0, ptr noundef nonnull %6) #29
  %28 = extractvalue { i64, i64 } %27, 0
  %29 = extractvalue { i64, i64 } %27, 1
  %30 = call i32 @JS_DefinePropertyValueStr(ptr noundef %0, i64 %23, i64 %24, ptr noundef nonnull @.str.3, i64 %28, i64 %29, i32 noundef 7) #29
  %31 = icmp ne i32 %4, 0
  %.sroa.041.0.insert.ext = zext i1 %31 to i64
  %32 = call i32 @JS_DefinePropertyValueStr(ptr noundef %0, i64 %23, i64 %24, ptr noundef nonnull @.str.4, i64 %.sroa.041.0.insert.ext, i64 1, i32 noundef 7) #29
  %33 = trunc i64 %24 to i32
  %34 = icmp ugt i32 %33, -12
  br i1 %34, label %35, label %JS_FreeValue.exit

35:                                               ; preds = %26
  %36 = inttoptr i64 %23 to ptr
  %37 = load i32, ptr %36, align 4
  %38 = add i32 %37, -1
  store i32 %38, ptr %36, align 4
  %39 = icmp slt i32 %38, 1
  br i1 %39, label %40, label %JS_FreeValue.exit

40:                                               ; preds = %35
  call void @__JS_FreeValue(ptr noundef %0, i64 %23, i64 %24) #29
  br label %JS_FreeValue.exit

JS_FreeValue.exit:                                ; preds = %40, %35, %26, %21, %5, %16
  %.0 = phi i32 [ -1, %16 ], [ -1, %5 ], [ -1, %21 ], [ 0, %26 ], [ 0, %35 ], [ 0, %40 ]
  ret i32 %.0
}